

Microchip MPLAB XC8 Assembler V2.31 build 20201012212115 
                                                                                               Wed Sep 01 15:52:23 2021

Microchip MPLAB XC8 C Compiler v2.31 (Free license) build 20201012212115 Og1 
     1                           	processor	16F887
     2                           	pagewidth 120
     3                           	opt	flic
     4                           	psect	cinit,global,class=CODE,merge=1,delta=2
     5                           	psect	bssBANK0,global,class=BANK0,space=1,delta=1,noexec
     6                           	psect	cstackCOMMON,global,class=COMMON,space=1,delta=1,noexec
     7                           	psect	cstackBANK0,global,class=BANK0,space=1,delta=1,noexec
     8                           	psect	maintext,global,class=CODE,split=1,delta=2
     9                           	psect	text1,local,class=CODE,merge=1,delta=2
    10                           	psect	text2,local,class=CODE,merge=1,delta=2
    11                           	psect	text3,local,class=CODE,merge=1,delta=2,group=1
    12                           	psect	text4,local,class=CODE,merge=1,delta=2
    13                           	psect	text5,local,class=CODE,merge=1,delta=2
    14                           	psect	text6,local,class=CODE,merge=1,delta=2
    15                           	psect	text7,local,class=CODE,merge=1,delta=2
    16                           	psect	text8,local,class=CODE,merge=1,delta=2
    17                           	psect	text9,local,class=CODE,merge=1,delta=2
    18                           	psect	config,global,abs,ovrld,class=CONFIG,space=4,delta=2,noexec
    19                           	dabs	1,0x7E,2
    20  0000                     
    21                           ; Version 2.20
    22                           ; Generated 12/02/2020 GMT
    23                           ; 
    24                           ; Copyright © 2020, Microchip Technology Inc. and its subsidiaries ("Microchip")
    25                           ; All rights reserved.
    26                           ; 
    27                           ; This software is developed by Microchip Technology Inc. and its subsidiaries ("Microch
      +                          ip").
    28                           ; 
    29                           ; Redistribution and use in source and binary forms, with or without modification, are
    30                           ; permitted provided that the following conditions are met:
    31                           ; 
    32                           ;     1. Redistributions of source code must retain the above copyright notice, this lis
      +                          t of
    33                           ;        conditions and the following disclaimer.
    34                           ; 
    35                           ;     2. Redistributions in binary form must reproduce the above copyright notice, this 
      +                          list
    36                           ;        of conditions and the following disclaimer in the documentation and/or other
    37                           ;        materials provided with the distribution.
    38                           ; 
    39                           ;     3. Microchip's name may not be used to endorse or promote products derived from th
      +                          is
    40                           ;        software without specific prior written permission.
    41                           ; 
    42                           ; THIS SOFTWARE IS PROVIDED BY MICROCHIP "AS IS" AND ANY EXPRESS OR IMPLIED WARRANTIES,
    43                           ; INCLUDING, BUT NOT LIMITED TO, THE IMPLIED WARRANTIES OF MERCHANTABILITY AND FITNESS F
      +                          OR
    44                           ; PURPOSE ARE DISCLAIMED.  IN NO EVENT SHALL MICROCHIP BE LIABLE FOR ANY DIRECT, INDIREC
      +                          T,
    45                           ; INCIDENTAL, SPECIAL, EXEMPLARY, OR CONSEQUENTIAL DAMAGES (INCLUDING BUT NOT LIMITED TO
    46                           ; PROCUREMENT OF SUBSTITUTE GOODS OR SERVICES; LOSS OF USE, DATA OR PROFITS; OR BUSINESS
    47                           ; INTERRUPTION) HOWSOEVER CAUSED AND ON ANY THEORY OF LIABILITY, WHETHER IN CONTRACT, ST
      +                          RICT
    48                           ; LIABILITY, OR TORT (INCLUDING NEGLIGENCE OR OTHERWISE) ARISING IN ANY WAY OUT OF THE U
      +                          SE OF
    49                           ; THIS SOFTWARE, EVEN IF ADVISED OF THE POSSIBILITY OF SUCH DAMAGE.
    50                           ; 
    51                           ; 
    52                           ; Code-generator required, PIC16F887 Definitions
    53                           ; 
    54                           ; SFR Addresses
    55  0000                     	;# 
    56  0001                     	;# 
    57  0002                     	;# 
    58  0003                     	;# 
    59  0004                     	;# 
    60  0005                     	;# 
    61  0006                     	;# 
    62  0007                     	;# 
    63  0008                     	;# 
    64  0009                     	;# 
    65  000A                     	;# 
    66  000B                     	;# 
    67  000C                     	;# 
    68  000D                     	;# 
    69  000E                     	;# 
    70  000E                     	;# 
    71  000F                     	;# 
    72  0010                     	;# 
    73  0011                     	;# 
    74  0012                     	;# 
    75  0013                     	;# 
    76  0014                     	;# 
    77  0015                     	;# 
    78  0015                     	;# 
    79  0016                     	;# 
    80  0017                     	;# 
    81  0018                     	;# 
    82  0019                     	;# 
    83  001A                     	;# 
    84  001B                     	;# 
    85  001B                     	;# 
    86  001C                     	;# 
    87  001D                     	;# 
    88  001E                     	;# 
    89  001F                     	;# 
    90  0081                     	;# 
    91  0085                     	;# 
    92  0086                     	;# 
    93  0087                     	;# 
    94  0088                     	;# 
    95  0089                     	;# 
    96  008C                     	;# 
    97  008D                     	;# 
    98  008E                     	;# 
    99  008F                     	;# 
   100  0090                     	;# 
   101  0091                     	;# 
   102  0092                     	;# 
   103  0093                     	;# 
   104  0093                     	;# 
   105  0093                     	;# 
   106  0094                     	;# 
   107  0095                     	;# 
   108  0096                     	;# 
   109  0097                     	;# 
   110  0098                     	;# 
   111  0099                     	;# 
   112  009A                     	;# 
   113  009B                     	;# 
   114  009C                     	;# 
   115  009D                     	;# 
   116  009E                     	;# 
   117  009F                     	;# 
   118  0105                     	;# 
   119  0107                     	;# 
   120  0108                     	;# 
   121  0109                     	;# 
   122  010C                     	;# 
   123  010C                     	;# 
   124  010D                     	;# 
   125  010E                     	;# 
   126  010F                     	;# 
   127  0185                     	;# 
   128  0187                     	;# 
   129  0188                     	;# 
   130  0189                     	;# 
   131  018C                     	;# 
   132  018D                     	;# 
   133  0000                     	;# 
   134  0001                     	;# 
   135  0002                     	;# 
   136  0003                     	;# 
   137  0004                     	;# 
   138  0005                     	;# 
   139  0006                     	;# 
   140  0007                     	;# 
   141  0008                     	;# 
   142  0009                     	;# 
   143  000A                     	;# 
   144  000B                     	;# 
   145  000C                     	;# 
   146  000D                     	;# 
   147  000E                     	;# 
   148  000E                     	;# 
   149  000F                     	;# 
   150  0010                     	;# 
   151  0011                     	;# 
   152  0012                     	;# 
   153  0013                     	;# 
   154  0014                     	;# 
   155  0015                     	;# 
   156  0015                     	;# 
   157  0016                     	;# 
   158  0017                     	;# 
   159  0018                     	;# 
   160  0019                     	;# 
   161  001A                     	;# 
   162  001B                     	;# 
   163  001B                     	;# 
   164  001C                     	;# 
   165  001D                     	;# 
   166  001E                     	;# 
   167  001F                     	;# 
   168  0081                     	;# 
   169  0085                     	;# 
   170  0086                     	;# 
   171  0087                     	;# 
   172  0088                     	;# 
   173  0089                     	;# 
   174  008C                     	;# 
   175  008D                     	;# 
   176  008E                     	;# 
   177  008F                     	;# 
   178  0090                     	;# 
   179  0091                     	;# 
   180  0092                     	;# 
   181  0093                     	;# 
   182  0093                     	;# 
   183  0093                     	;# 
   184  0094                     	;# 
   185  0095                     	;# 
   186  0096                     	;# 
   187  0097                     	;# 
   188  0098                     	;# 
   189  0099                     	;# 
   190  009A                     	;# 
   191  009B                     	;# 
   192  009C                     	;# 
   193  009D                     	;# 
   194  009E                     	;# 
   195  009F                     	;# 
   196  0105                     	;# 
   197  0107                     	;# 
   198  0108                     	;# 
   199  0109                     	;# 
   200  010C                     	;# 
   201  010C                     	;# 
   202  010D                     	;# 
   203  010E                     	;# 
   204  010F                     	;# 
   205  0185                     	;# 
   206  0187                     	;# 
   207  0188                     	;# 
   208  0189                     	;# 
   209  018C                     	;# 
   210  018D                     	;# 
   211  0000                     	;# 
   212  0001                     	;# 
   213  0002                     	;# 
   214  0003                     	;# 
   215  0004                     	;# 
   216  0005                     	;# 
   217  0006                     	;# 
   218  0007                     	;# 
   219  0008                     	;# 
   220  0009                     	;# 
   221  000A                     	;# 
   222  000B                     	;# 
   223  000C                     	;# 
   224  000D                     	;# 
   225  000E                     	;# 
   226  000E                     	;# 
   227  000F                     	;# 
   228  0010                     	;# 
   229  0011                     	;# 
   230  0012                     	;# 
   231  0013                     	;# 
   232  0014                     	;# 
   233  0015                     	;# 
   234  0015                     	;# 
   235  0016                     	;# 
   236  0017                     	;# 
   237  0018                     	;# 
   238  0019                     	;# 
   239  001A                     	;# 
   240  001B                     	;# 
   241  001B                     	;# 
   242  001C                     	;# 
   243  001D                     	;# 
   244  001E                     	;# 
   245  001F                     	;# 
   246  0081                     	;# 
   247  0085                     	;# 
   248  0086                     	;# 
   249  0087                     	;# 
   250  0088                     	;# 
   251  0089                     	;# 
   252  008C                     	;# 
   253  008D                     	;# 
   254  008E                     	;# 
   255  008F                     	;# 
   256  0090                     	;# 
   257  0091                     	;# 
   258  0092                     	;# 
   259  0093                     	;# 
   260  0093                     	;# 
   261  0093                     	;# 
   262  0094                     	;# 
   263  0095                     	;# 
   264  0096                     	;# 
   265  0097                     	;# 
   266  0098                     	;# 
   267  0099                     	;# 
   268  009A                     	;# 
   269  009B                     	;# 
   270  009C                     	;# 
   271  009D                     	;# 
   272  009E                     	;# 
   273  009F                     	;# 
   274  0105                     	;# 
   275  0107                     	;# 
   276  0108                     	;# 
   277  0109                     	;# 
   278  010C                     	;# 
   279  010C                     	;# 
   280  010D                     	;# 
   281  010E                     	;# 
   282  010F                     	;# 
   283  0185                     	;# 
   284  0187                     	;# 
   285  0188                     	;# 
   286  0189                     	;# 
   287  018C                     	;# 
   288  018D                     	;# 
   289  0008                     _PORTD	set	8
   290  0008                     _PORTDbits	set	8
   291  0013                     _SSPBUF	set	19
   292  0014                     _SSPCON	set	20
   293  0063                     _SSPIF	set	99
   294  005E                     _PEIE	set	94
   295  005F                     _GIE	set	95
   296  008F                     _OSCCONbits	set	143
   297  0088                     _TRISD	set	136
   298  0091                     _SSPCON2bits	set	145
   299  0087                     _TRISCbits	set	135
   300  0094                     _SSPSTAT	set	148
   301  0093                     _SSPADD	set	147
   302  0091                     _SSPCON2	set	145
   303  0463                     _SSPIE	set	1123
   304  043C                     _TRISC4	set	1084
   305  043B                     _TRISC3	set	1083
   306  0189                     _ANSELH	set	393
   307  0188                     _ANSEL	set	392
   308                           
   309                           	psect	cinit
   310  07F6                     start_initialization:	
   311                           ; #config settings
   312                           
   313  07F6                     __initialization:
   314                           
   315                           ; Clear objects allocated to BANK0
   316  07F6  1283               	bcf	3,5	;RP0=0, select bank0
   317  07F7  1303               	bcf	3,6	;RP1=0, select bank0
   318  07F8  01AB               	clrf	__pbssBANK0& (0+127)
   319  07F9  01AC               	clrf	(__pbssBANK0+1)& (0+127)
   320  07FA  01AD               	clrf	(__pbssBANK0+2)& (0+127)
   321  07FB  01AE               	clrf	(__pbssBANK0+3)& (0+127)
   322  07FC                     end_of_initialization:	
   323                           ;End of C runtime variable initialization code
   324                           
   325  07FC                     __end_of__initialization:
   326  07FC  0183               	clrf	3
   327  07FD  120A  118A  2F34   	ljmp	_main	;jump to C main() function
   328                           
   329                           	psect	bssBANK0
   330  002B                     __pbssBANK0:
   331  002B                     _val:
   332  002B                     	ds	1
   333  002C                     _d1:
   334  002C                     	ds	1
   335  002D                     _d0:
   336  002D                     	ds	1
   337  002E                     _pd:
   338  002E                     	ds	1
   339                           
   340                           	psect	cstackCOMMON
   341  0070                     __pcstackCOMMON:
   342  0070                     ?_setup:
   343  0070                     ?_cfg_clk:	
   344                           ; 1 bytes @ 0x0
   345                           
   346  0070                     ??_cfg_clk:	
   347                           ; 1 bytes @ 0x0
   348                           
   349  0070                     ?_I2C_Master_Wait:	
   350                           ; 1 bytes @ 0x0
   351                           
   352  0070                     ??_I2C_Master_Wait:	
   353                           ; 1 bytes @ 0x0
   354                           
   355  0070                     ?_I2C_Master_Start:	
   356                           ; 1 bytes @ 0x0
   357                           
   358  0070                     ??_I2C_Master_Start:	
   359                           ; 1 bytes @ 0x0
   360                           
   361  0070                     ?_I2C_Master_Stop:	
   362                           ; 1 bytes @ 0x0
   363                           
   364  0070                     ??_I2C_Master_Stop:	
   365                           ; 1 bytes @ 0x0
   366                           
   367  0070                     ?_I2C_Master_Write:	
   368                           ; 1 bytes @ 0x0
   369                           
   370  0070                     ?_main:	
   371                           ; 1 bytes @ 0x0
   372                           
   373  0070                     ?_I2C_Master_Read:	
   374                           ; 1 bytes @ 0x0
   375                           
   376  0070                     ?___lldiv:	
   377                           ; 2 bytes @ 0x0
   378                           
   379  0070                     I2C_Master_Write@d:	
   380                           ; 4 bytes @ 0x0
   381                           
   382  0070                     I2C_Master_Read@a:	
   383                           ; 2 bytes @ 0x0
   384                           
   385  0070                     ___lldiv@divisor:	
   386                           ; 2 bytes @ 0x0
   387                           
   388                           
   389                           ; 4 bytes @ 0x0
   390  0070                     	ds	2
   391  0072                     ??_I2C_Master_Write:
   392  0072                     ??_I2C_Master_Read:	
   393                           ; 1 bytes @ 0x2
   394                           
   395                           
   396                           ; 1 bytes @ 0x2
   397  0072                     	ds	2
   398  0074                     I2C_Master_Read@temp:
   399  0074                     ___lldiv@dividend:	
   400                           ; 2 bytes @ 0x4
   401                           
   402                           
   403                           ; 4 bytes @ 0x4
   404  0074                     	ds	4
   405  0078                     ??___lldiv:
   406                           
   407                           ; 1 bytes @ 0x8
   408  0078                     	ds	1
   409  0079                     ___lldiv@quotient:
   410                           
   411                           ; 4 bytes @ 0x9
   412  0079                     	ds	4
   413  007D                     ___lldiv@counter:
   414                           
   415                           ; 1 bytes @ 0xD
   416  007D                     	ds	1
   417  007E                     ??_setup:
   418                           
   419                           	psect	cstackBANK0
   420  0020                     __pcstackBANK0:	
   421                           ; 1 bytes @ 0xE
   422                           
   423  0020                     ?_I2C_Master_Init:
   424  0020                     I2C_Master_Init@c:	
   425                           ; 1 bytes @ 0x0
   426                           
   427                           
   428                           ; 4 bytes @ 0x0
   429  0020                     	ds	4
   430  0024                     ??_I2C_Master_Init:
   431                           
   432                           ; 1 bytes @ 0x4
   433  0024                     	ds	4
   434  0028                     ??_main:
   435                           
   436                           ; 1 bytes @ 0x8
   437  0028                     	ds	3
   438                           
   439                           	psect	maintext
   440  0734                     __pmaintext:	
   441 ;;
   442 ;;Main: autosize = 0, tempsize = 3, incstack = 0, save=0
   443 ;;
   444 ;; *************** function _main *****************
   445 ;; Defined at:
   446 ;;		line 57 in file "maestro.c"
   447 ;; Parameters:    Size  Location     Type
   448 ;;		None
   449 ;; Auto vars:     Size  Location     Type
   450 ;;		None
   451 ;; Return value:  Size  Location     Type
   452 ;;                  1    wreg      void 
   453 ;; Registers used:
   454 ;;		wreg, status,2, status,0, pclath, cstack
   455 ;; Tracked objects:
   456 ;;		On entry : B00/0
   457 ;;		On exit  : 0/0
   458 ;;		Unchanged: 0/0
   459 ;; Data sizes:     COMMON   BANK0   BANK1   BANK3   BANK2
   460 ;;      Params:         0       0       0       0       0
   461 ;;      Locals:         0       0       0       0       0
   462 ;;      Temps:          0       3       0       0       0
   463 ;;      Totals:         0       3       0       0       0
   464 ;;Total ram usage:        3 bytes
   465 ;; Hardware stack levels required when called:    3
   466 ;; This function calls:
   467 ;;		_I2C_Master_Read
   468 ;;		_I2C_Master_Start
   469 ;;		_I2C_Master_Stop
   470 ;;		_I2C_Master_Write
   471 ;;		_cfg_clk
   472 ;;		_setup
   473 ;; This function is called by:
   474 ;;		Startup code after reset
   475 ;; This function uses a non-reentrant model
   476 ;;
   477                           
   478                           
   479                           ;psect for function _main
   480  0734                     _main:
   481  0734                     l883:	
   482                           ;incstack = 0
   483                           ; Regs used in _main: [wreg+status,2+status,0+pclath+cstack]
   484                           
   485                           
   486                           ;maestro.c: 58:     setup();
   487  0734  120A  118A  26B6  120A  118A  	fcall	_setup
   488                           
   489                           ;maestro.c: 59:     cfg_clk();
   490  0739  120A  118A  2685  120A  118A  	fcall	_cfg_clk
   491  073E                     l96:	
   492                           ;maestro.c: 60:     while(1){
   493                           
   494                           
   495                           ;maestro.c: 67:         I2C_Master_Start();
   496  073E  120A  118A  268D  120A  118A  	fcall	_I2C_Master_Start
   497                           
   498                           ;maestro.c: 68:         I2C_Master_Write(0x51);
   499  0743  3051               	movlw	81
   500  0744  00F0               	movwf	I2C_Master_Write@d
   501  0745  3000               	movlw	0
   502  0746  00F1               	movwf	I2C_Master_Write@d+1
   503  0747  120A  118A  269F  120A  118A  	fcall	_I2C_Master_Write
   504                           
   505                           ;maestro.c: 69:         pd = I2C_Master_Read(0);
   506  074C  3000               	movlw	0
   507  074D  00F0               	movwf	I2C_Master_Read@a
   508  074E  00F1               	movwf	I2C_Master_Read@a+1
   509  074F  120A  118A  26CE  120A  118A  	fcall	_I2C_Master_Read
   510  0754  0870               	movf	?_I2C_Master_Read,w
   511  0755  1283               	bcf	3,5	;RP0=0, select bank0
   512  0756  1303               	bcf	3,6	;RP1=0, select bank0
   513  0757  00A8               	movwf	??_main
   514  0758  0828               	movf	??_main,w
   515  0759  00AE               	movwf	_pd
   516                           
   517                           ;maestro.c: 70:         I2C_Master_Stop();
   518  075A  120A  118A  2696  120A  118A  	fcall	_I2C_Master_Stop
   519  075F                     l885:
   520                           
   521                           ;maestro.c: 71:         _delay((unsigned long)((200)*(4000000/4000.0)));
   522  075F  3002               	movlw	2
   523  0760  1283               	bcf	3,5	;RP0=0, select bank0
   524  0761  1303               	bcf	3,6	;RP1=0, select bank0
   525  0762  00AA               	movwf	??_main+2
   526  0763  3004               	movlw	4
   527  0764  00A9               	movwf	??_main+1
   528  0765  30B9               	movlw	185
   529  0766  00A8               	movwf	??_main
   530  0767                     u257:
   531  0767  0BA8               	decfsz	??_main,f
   532  0768  2F67               	goto	u257
   533  0769  0BA9               	decfsz	??_main+1,f
   534  076A  2F67               	goto	u257
   535  076B  0BAA               	decfsz	??_main+2,f
   536  076C  2F67               	goto	u257
   537  076D  2F6E               	nop2
   538  076E                     l887:
   539                           
   540                           ;maestro.c: 73:         d0 = (0x0F & pd);
   541  076E  1283               	bcf	3,5	;RP0=0, select bank0
   542  076F  1303               	bcf	3,6	;RP1=0, select bank0
   543  0770  082E               	movf	_pd,w
   544  0771  390F               	andlw	15
   545  0772  00A8               	movwf	??_main
   546  0773  0828               	movf	??_main,w
   547  0774  00AD               	movwf	_d0
   548  0775                     l889:
   549                           
   550                           ;maestro.c: 74:         d1 = (0x0F & (pd>>4));
   551  0775  082E               	movf	_pd,w
   552  0776  00A8               	movwf	??_main
   553  0777  3004               	movlw	4
   554  0778                     u245:
   555  0778  1003               	clrc
   556  0779  0CA8               	rrf	??_main,f
   557  077A  3EFF               	addlw	-1
   558  077B  1D03               	skipz
   559  077C  2F78               	goto	u245
   560  077D  0828               	movf	??_main,w
   561  077E  390F               	andlw	15
   562  077F  00A9               	movwf	??_main+1
   563  0780  0829               	movf	??_main+1,w
   564  0781  00AC               	movwf	_d1
   565  0782                     l891:
   566                           
   567                           ;maestro.c: 76:         PORTDbits.RD0 = d0;
   568  0782  0C2D               	rrf	_d0,w
   569  0783  1C03               	skipc
   570  0784  1008               	bcf	8,0	;volatile
   571  0785  1803               	skipnc
   572  0786  1408               	bsf	8,0	;volatile
   573  0787                     l893:
   574                           
   575                           ;maestro.c: 77:         PORTDbits.RD1 = d1;
   576  0787  0C2C               	rrf	_d1,w
   577  0788  1C03               	skipc
   578  0789  1088               	bcf	8,1	;volatile
   579  078A  1803               	skipnc
   580  078B  1488               	bsf	8,1	;volatile
   581  078C  2F3E               	goto	l96
   582  078D  120A  118A  2800   	ljmp	start
   583  0790                     __end_of_main:
   584                           
   585                           	psect	text1
   586  06B6                     __ptext1:	
   587 ;; *************** function _setup *****************
   588 ;; Defined at:
   589 ;;		line 84 in file "maestro.c"
   590 ;; Parameters:    Size  Location     Type
   591 ;;		None
   592 ;; Auto vars:     Size  Location     Type
   593 ;;		None
   594 ;; Return value:  Size  Location     Type
   595 ;;                  1    wreg      void 
   596 ;; Registers used:
   597 ;;		wreg, status,2, status,0, pclath, cstack
   598 ;; Tracked objects:
   599 ;;		On entry : 0/0
   600 ;;		On exit  : 0/0
   601 ;;		Unchanged: 0/0
   602 ;; Data sizes:     COMMON   BANK0   BANK1   BANK3   BANK2
   603 ;;      Params:         0       0       0       0       0
   604 ;;      Locals:         0       0       0       0       0
   605 ;;      Temps:          0       0       0       0       0
   606 ;;      Totals:         0       0       0       0       0
   607 ;;Total ram usage:        0 bytes
   608 ;; Hardware stack levels used:    1
   609 ;; Hardware stack levels required when called:    2
   610 ;; This function calls:
   611 ;;		_I2C_Master_Init
   612 ;; This function is called by:
   613 ;;		_main
   614 ;; This function uses a non-reentrant model
   615 ;;
   616                           
   617                           
   618                           ;psect for function _setup
   619  06B6                     _setup:
   620  06B6                     l871:	
   621                           ;incstack = 0
   622                           ; Regs used in _setup: [wreg+status,2+status,0+pclath+cstack]
   623                           
   624                           
   625                           ;maestro.c: 85:     ANSEL = 0;
   626  06B6  1683               	bsf	3,5	;RP0=1, select bank3
   627  06B7  1703               	bsf	3,6	;RP1=1, select bank3
   628  06B8  0188               	clrf	8	;volatile
   629                           
   630                           ;maestro.c: 86:     ANSELH = 0;
   631  06B9  0189               	clrf	9	;volatile
   632                           
   633                           ;maestro.c: 87:     TRISD = 0;
   634  06BA  1683               	bsf	3,5	;RP0=1, select bank1
   635  06BB  1303               	bcf	3,6	;RP1=0, select bank1
   636  06BC  0188               	clrf	8	;volatile
   637                           
   638                           ;maestro.c: 88:     PORTD = 0;
   639  06BD  1283               	bcf	3,5	;RP0=0, select bank0
   640  06BE  1303               	bcf	3,6	;RP1=0, select bank0
   641  06BF  0188               	clrf	8	;volatile
   642  06C0                     l873:
   643                           
   644                           ;maestro.c: 90:     I2C_Master_Init(100000);
   645  06C0  3000               	movlw	0
   646  06C1  00A3               	movwf	I2C_Master_Init@c+3
   647  06C2  3001               	movlw	1
   648  06C3  00A2               	movwf	I2C_Master_Init@c+2
   649  06C4  3086               	movlw	134
   650  06C5  00A1               	movwf	I2C_Master_Init@c+1
   651  06C6  30A0               	movlw	160
   652  06C7  00A0               	movwf	I2C_Master_Init@c
   653  06C8  120A  118A  26FC  120A  118A  	fcall	_I2C_Master_Init
   654  06CD                     l102:
   655  06CD  0008               	return
   656  06CE                     __end_of_setup:
   657                           
   658                           	psect	text2
   659  06FC                     __ptext2:	
   660 ;; *************** function _I2C_Master_Init *****************
   661 ;; Defined at:
   662 ;;		line 19 in file "I2C.c"
   663 ;; Parameters:    Size  Location     Type
   664 ;;  c               4    0[BANK0 ] const unsigned long 
   665 ;; Auto vars:     Size  Location     Type
   666 ;;		None
   667 ;; Return value:  Size  Location     Type
   668 ;;                  1    wreg      void 
   669 ;; Registers used:
   670 ;;		wreg, status,2, status,0, pclath, cstack
   671 ;; Tracked objects:
   672 ;;		On entry : 0/0
   673 ;;		On exit  : 0/0
   674 ;;		Unchanged: 0/0
   675 ;; Data sizes:     COMMON   BANK0   BANK1   BANK3   BANK2
   676 ;;      Params:         0       4       0       0       0
   677 ;;      Locals:         0       0       0       0       0
   678 ;;      Temps:          0       4       0       0       0
   679 ;;      Totals:         0       8       0       0       0
   680 ;;Total ram usage:        8 bytes
   681 ;; Hardware stack levels used:    1
   682 ;; Hardware stack levels required when called:    1
   683 ;; This function calls:
   684 ;;		___lldiv
   685 ;; This function is called by:
   686 ;;		_setup
   687 ;; This function uses a non-reentrant model
   688 ;;
   689                           
   690                           
   691                           ;psect for function _I2C_Master_Init
   692  06FC                     _I2C_Master_Init:
   693  06FC                     l827:	
   694                           ;incstack = 0
   695                           ; Regs used in _I2C_Master_Init: [wreg+status,2+status,0+pclath+cstack]
   696                           
   697                           
   698                           ;I2C.c: 19: void I2C_Master_Init(const unsigned long c);I2C.c: 20: {;I2C.c: 21:     SSPC
      +                          ON = 0b00101000;
   699  06FC  3028               	movlw	40
   700  06FD  1283               	bcf	3,5	;RP0=0, select bank0
   701  06FE  1303               	bcf	3,6	;RP1=0, select bank0
   702  06FF  0094               	movwf	20	;volatile
   703  0700                     l829:
   704                           
   705                           ;I2C.c: 22:     SSPCON2 = 0;
   706  0700  1683               	bsf	3,5	;RP0=1, select bank1
   707  0701  1303               	bcf	3,6	;RP1=0, select bank1
   708  0702  0191               	clrf	17	;volatile
   709  0703                     l831:
   710                           
   711                           ;I2C.c: 23:     SSPADD = (4000000/(4*c))-1;
   712  0703  1283               	bcf	3,5	;RP0=0, select bank0
   713  0704  1303               	bcf	3,6	;RP1=0, select bank0
   714  0705  0820               	movf	I2C_Master_Init@c,w
   715  0706  00A4               	movwf	??_I2C_Master_Init
   716  0707  0821               	movf	I2C_Master_Init@c+1,w
   717  0708  00A5               	movwf	??_I2C_Master_Init+1
   718  0709  0822               	movf	I2C_Master_Init@c+2,w
   719  070A  00A6               	movwf	??_I2C_Master_Init+2
   720  070B  0823               	movf	I2C_Master_Init@c+3,w
   721  070C  00A7               	movwf	??_I2C_Master_Init+3
   722  070D  3002               	movlw	2
   723  070E                     u205:
   724  070E  1003               	clrc
   725  070F  0DA4               	rlf	??_I2C_Master_Init,f
   726  0710  0DA5               	rlf	??_I2C_Master_Init+1,f
   727  0711  0DA6               	rlf	??_I2C_Master_Init+2,f
   728  0712  0DA7               	rlf	??_I2C_Master_Init+3,f
   729  0713                     u200:
   730  0713  3EFF               	addlw	-1
   731  0714  1D03               	skipz
   732  0715  2F0E               	goto	u205
   733  0716  0827               	movf	??_I2C_Master_Init+3,w
   734  0717  00F3               	movwf	___lldiv@divisor+3
   735  0718  0826               	movf	??_I2C_Master_Init+2,w
   736  0719  00F2               	movwf	___lldiv@divisor+2
   737  071A  0825               	movf	??_I2C_Master_Init+1,w
   738  071B  00F1               	movwf	___lldiv@divisor+1
   739  071C  0824               	movf	??_I2C_Master_Init,w
   740  071D  00F0               	movwf	___lldiv@divisor
   741  071E  3000               	movlw	0
   742  071F  00F7               	movwf	___lldiv@dividend+3
   743  0720  303D               	movlw	61
   744  0721  00F6               	movwf	___lldiv@dividend+2
   745  0722  3009               	movlw	9
   746  0723  00F5               	movwf	___lldiv@dividend+1
   747  0724  3000               	movlw	0
   748  0725  00F4               	movwf	___lldiv@dividend
   749  0726  120A  118A  2790  120A  118A  	fcall	___lldiv
   750  072B  0870               	movf	?___lldiv,w
   751  072C  3EFF               	addlw	255
   752  072D  1683               	bsf	3,5	;RP0=1, select bank1
   753  072E  1303               	bcf	3,6	;RP1=0, select bank1
   754  072F  0093               	movwf	19	;volatile
   755  0730                     l833:
   756                           
   757                           ;I2C.c: 24:     SSPSTAT = 0;
   758  0730  0194               	clrf	20	;volatile
   759  0731                     l835:
   760                           
   761                           ;I2C.c: 25:     TRISCbits.TRISC3 = 1;
   762  0731  1587               	bsf	7,3	;volatile
   763  0732                     l837:
   764                           
   765                           ;I2C.c: 26:     TRISCbits.TRISC4 = 1;
   766  0732  1607               	bsf	7,4	;volatile
   767  0733                     l29:
   768  0733  0008               	return
   769  0734                     __end_of_I2C_Master_Init:
   770                           
   771                           	psect	text3
   772  0790                     __ptext3:	
   773 ;; *************** function ___lldiv *****************
   774 ;; Defined at:
   775 ;;		line 5 in file "C:\Program Files\Microchip\xc8\v2.31\pic\sources\c90\common\__lldiv.c"
   776 ;; Parameters:    Size  Location     Type
   777 ;;  divisor         4    0[COMMON] unsigned long 
   778 ;;  dividend        4    4[COMMON] unsigned long 
   779 ;; Auto vars:     Size  Location     Type
   780 ;;  quotient        4    9[COMMON] unsigned long 
   781 ;;  counter         1   13[COMMON] unsigned char 
   782 ;; Return value:  Size  Location     Type
   783 ;;                  4    0[COMMON] unsigned long 
   784 ;; Registers used:
   785 ;;		wreg, status,2, status,0
   786 ;; Tracked objects:
   787 ;;		On entry : 0/0
   788 ;;		On exit  : 0/0
   789 ;;		Unchanged: 0/0
   790 ;; Data sizes:     COMMON   BANK0   BANK1   BANK3   BANK2
   791 ;;      Params:         8       0       0       0       0
   792 ;;      Locals:         5       0       0       0       0
   793 ;;      Temps:          1       0       0       0       0
   794 ;;      Totals:        14       0       0       0       0
   795 ;;Total ram usage:       14 bytes
   796 ;; Hardware stack levels used:    1
   797 ;; This function calls:
   798 ;;		Nothing
   799 ;; This function is called by:
   800 ;;		_I2C_Master_Init
   801 ;; This function uses a non-reentrant model
   802 ;;
   803                           
   804                           
   805                           ;psect for function ___lldiv
   806  0790                     ___lldiv:
   807  0790                     l803:	
   808                           ;incstack = 0
   809                           ; Regs used in ___lldiv: [wreg+status,2+status,0]
   810                           
   811  0790  3000               	movlw	0
   812  0791  00FC               	movwf	___lldiv@quotient+3
   813  0792  3000               	movlw	0
   814  0793  00FB               	movwf	___lldiv@quotient+2
   815  0794  3000               	movlw	0
   816  0795  00FA               	movwf	___lldiv@quotient+1
   817  0796  3000               	movlw	0
   818  0797  00F9               	movwf	___lldiv@quotient
   819  0798  0873               	movf	___lldiv@divisor+3,w
   820  0799  0472               	iorwf	___lldiv@divisor+2,w
   821  079A  0471               	iorwf	___lldiv@divisor+1,w
   822  079B  0470               	iorwf	___lldiv@divisor,w
   823  079C  1903               	skipnz
   824  079D  2F9F               	goto	u131
   825  079E  2FA0               	goto	u130
   826  079F                     u131:
   827  079F  2FED               	goto	l823
   828  07A0                     u130:
   829  07A0                     l805:
   830  07A0  01FD               	clrf	___lldiv@counter
   831  07A1  0AFD               	incf	___lldiv@counter,f
   832  07A2  2FB0               	goto	l809
   833  07A3                     l807:
   834  07A3  3001               	movlw	1
   835  07A4  00F8               	movwf	??___lldiv
   836  07A5                     u145:
   837  07A5  1003               	clrc
   838  07A6  0DF0               	rlf	___lldiv@divisor,f
   839  07A7  0DF1               	rlf	___lldiv@divisor+1,f
   840  07A8  0DF2               	rlf	___lldiv@divisor+2,f
   841  07A9  0DF3               	rlf	___lldiv@divisor+3,f
   842  07AA  0BF8               	decfsz	??___lldiv,f
   843  07AB  2FA5               	goto	u145
   844  07AC  3001               	movlw	1
   845  07AD  00F8               	movwf	??___lldiv
   846  07AE  0878               	movf	??___lldiv,w
   847  07AF  07FD               	addwf	___lldiv@counter,f
   848  07B0                     l809:
   849  07B0  1FF3               	btfss	___lldiv@divisor+3,7
   850  07B1  2FB3               	goto	u151
   851  07B2  2FB4               	goto	u150
   852  07B3                     u151:
   853  07B3  2FA3               	goto	l807
   854  07B4                     u150:
   855  07B4                     l811:
   856  07B4  3001               	movlw	1
   857  07B5  00F8               	movwf	??___lldiv
   858  07B6                     u165:
   859  07B6  1003               	clrc
   860  07B7  0DF9               	rlf	___lldiv@quotient,f
   861  07B8  0DFA               	rlf	___lldiv@quotient+1,f
   862  07B9  0DFB               	rlf	___lldiv@quotient+2,f
   863  07BA  0DFC               	rlf	___lldiv@quotient+3,f
   864  07BB  0BF8               	decfsz	??___lldiv,f
   865  07BC  2FB6               	goto	u165
   866  07BD                     l813:
   867  07BD  0873               	movf	___lldiv@divisor+3,w
   868  07BE  0277               	subwf	___lldiv@dividend+3,w
   869  07BF  1D03               	skipz
   870  07C0  2FCB               	goto	u175
   871  07C1  0872               	movf	___lldiv@divisor+2,w
   872  07C2  0276               	subwf	___lldiv@dividend+2,w
   873  07C3  1D03               	skipz
   874  07C4  2FCB               	goto	u175
   875  07C5  0871               	movf	___lldiv@divisor+1,w
   876  07C6  0275               	subwf	___lldiv@dividend+1,w
   877  07C7  1D03               	skipz
   878  07C8  2FCB               	goto	u175
   879  07C9  0870               	movf	___lldiv@divisor,w
   880  07CA  0274               	subwf	___lldiv@dividend,w
   881  07CB                     u175:
   882  07CB  1C03               	skipc
   883  07CC  2FCE               	goto	u171
   884  07CD  2FCF               	goto	u170
   885  07CE                     u171:
   886  07CE  2FDE               	goto	l819
   887  07CF                     u170:
   888  07CF                     l815:
   889  07CF  0870               	movf	___lldiv@divisor,w
   890  07D0  02F4               	subwf	___lldiv@dividend,f
   891  07D1  0871               	movf	___lldiv@divisor+1,w
   892  07D2  1C03               	skipc
   893  07D3  0F71               	incfsz	___lldiv@divisor+1,w
   894  07D4  02F5               	subwf	___lldiv@dividend+1,f
   895  07D5  0872               	movf	___lldiv@divisor+2,w
   896  07D6  1C03               	skipc
   897  07D7  0F72               	incfsz	___lldiv@divisor+2,w
   898  07D8  02F6               	subwf	___lldiv@dividend+2,f
   899  07D9  0873               	movf	___lldiv@divisor+3,w
   900  07DA  1C03               	skipc
   901  07DB  0F73               	incfsz	___lldiv@divisor+3,w
   902  07DC  02F7               	subwf	___lldiv@dividend+3,f
   903  07DD                     l817:
   904  07DD  1479               	bsf	___lldiv@quotient,0
   905  07DE                     l819:
   906  07DE  3001               	movlw	1
   907  07DF                     u185:
   908  07DF  1003               	clrc
   909  07E0  0CF3               	rrf	___lldiv@divisor+3,f
   910  07E1  0CF2               	rrf	___lldiv@divisor+2,f
   911  07E2  0CF1               	rrf	___lldiv@divisor+1,f
   912  07E3  0CF0               	rrf	___lldiv@divisor,f
   913  07E4  3EFF               	addlw	-1
   914  07E5  1D03               	skipz
   915  07E6  2FDF               	goto	u185
   916  07E7                     l821:
   917  07E7  3001               	movlw	1
   918  07E8  02FD               	subwf	___lldiv@counter,f
   919  07E9  1D03               	btfss	3,2
   920  07EA  2FEC               	goto	u191
   921  07EB  2FED               	goto	u190
   922  07EC                     u191:
   923  07EC  2FB4               	goto	l811
   924  07ED                     u190:
   925  07ED                     l823:
   926  07ED  087C               	movf	___lldiv@quotient+3,w
   927  07EE  00F3               	movwf	?___lldiv+3
   928  07EF  087B               	movf	___lldiv@quotient+2,w
   929  07F0  00F2               	movwf	?___lldiv+2
   930  07F1  087A               	movf	___lldiv@quotient+1,w
   931  07F2  00F1               	movwf	?___lldiv+1
   932  07F3  0879               	movf	___lldiv@quotient,w
   933  07F4  00F0               	movwf	?___lldiv
   934  07F5                     l227:
   935  07F5  0008               	return
   936  07F6                     __end_of___lldiv:
   937                           
   938                           	psect	text4
   939  0685                     __ptext4:	
   940 ;; *************** function _cfg_clk *****************
   941 ;; Defined at:
   942 ;;		line 92 in file "maestro.c"
   943 ;; Parameters:    Size  Location     Type
   944 ;;		None
   945 ;; Auto vars:     Size  Location     Type
   946 ;;		None
   947 ;; Return value:  Size  Location     Type
   948 ;;                  1    wreg      void 
   949 ;; Registers used:
   950 ;;		wreg, status,2, status,0
   951 ;; Tracked objects:
   952 ;;		On entry : 0/0
   953 ;;		On exit  : 0/0
   954 ;;		Unchanged: 0/0
   955 ;; Data sizes:     COMMON   BANK0   BANK1   BANK3   BANK2
   956 ;;      Params:         0       0       0       0       0
   957 ;;      Locals:         0       0       0       0       0
   958 ;;      Temps:          0       0       0       0       0
   959 ;;      Totals:         0       0       0       0       0
   960 ;;Total ram usage:        0 bytes
   961 ;; Hardware stack levels used:    1
   962 ;; This function calls:
   963 ;;		Nothing
   964 ;; This function is called by:
   965 ;;		_main
   966 ;; This function uses a non-reentrant model
   967 ;;
   968                           
   969                           
   970                           ;psect for function _cfg_clk
   971  0685                     _cfg_clk:
   972  0685                     l875:	
   973                           ;incstack = 0
   974                           ; Regs used in _cfg_clk: [wreg+status,2+status,0]
   975                           
   976                           
   977                           ;maestro.c: 93:     OSCCONbits.IRCF = 0b110;
   978  0685  1683               	bsf	3,5	;RP0=1, select bank1
   979  0686  1303               	bcf	3,6	;RP1=0, select bank1
   980  0687  080F               	movf	15,w	;volatile
   981  0688  398F               	andlw	-113
   982  0689  3860               	iorlw	96
   983  068A  008F               	movwf	15	;volatile
   984  068B                     l877:
   985                           
   986                           ;maestro.c: 94:     OSCCONbits.SCS = 1;
   987  068B  140F               	bsf	15,0	;volatile
   988  068C                     l105:
   989  068C  0008               	return
   990  068D                     __end_of_cfg_clk:
   991                           
   992                           	psect	text5
   993  069F                     __ptext5:	
   994 ;; *************** function _I2C_Master_Write *****************
   995 ;; Defined at:
   996 ;;		line 68 in file "I2C.c"
   997 ;; Parameters:    Size  Location     Type
   998 ;;  d               2    0[COMMON] unsigned int 
   999 ;; Auto vars:     Size  Location     Type
  1000 ;;		None
  1001 ;; Return value:  Size  Location     Type
  1002 ;;                  1    wreg      void 
  1003 ;; Registers used:
  1004 ;;		wreg, status,2, status,0, pclath, cstack
  1005 ;; Tracked objects:
  1006 ;;		On entry : 0/0
  1007 ;;		On exit  : 0/0
  1008 ;;		Unchanged: 0/0
  1009 ;; Data sizes:     COMMON   BANK0   BANK1   BANK3   BANK2
  1010 ;;      Params:         2       0       0       0       0
  1011 ;;      Locals:         0       0       0       0       0
  1012 ;;      Temps:          0       0       0       0       0
  1013 ;;      Totals:         2       0       0       0       0
  1014 ;;Total ram usage:        2 bytes
  1015 ;; Hardware stack levels used:    1
  1016 ;; Hardware stack levels required when called:    1
  1017 ;; This function calls:
  1018 ;;		_I2C_Master_Wait
  1019 ;; This function is called by:
  1020 ;;		_main
  1021 ;; This function uses a non-reentrant model
  1022 ;;
  1023                           
  1024                           
  1025                           ;psect for function _I2C_Master_Write
  1026  069F                     _I2C_Master_Write:
  1027  069F                     l851:	
  1028                           ;incstack = 0
  1029                           ; Regs used in _I2C_Master_Write: [wreg+status,2+status,0+pclath+cstack]
  1030                           
  1031                           
  1032                           ;I2C.c: 68: void I2C_Master_Write(unsigned d);I2C.c: 69: {;I2C.c: 70:     I2C_Master_Wai
      +                          t();
  1033  069F  120A  118A  26A9  120A  118A  	fcall	_I2C_Master_Wait
  1034  06A4                     l853:
  1035                           
  1036                           ;I2C.c: 71:     SSPBUF = d;
  1037  06A4  0870               	movf	I2C_Master_Write@d,w
  1038  06A5  1283               	bcf	3,5	;RP0=0, select bank0
  1039  06A6  1303               	bcf	3,6	;RP1=0, select bank0
  1040  06A7  0093               	movwf	19	;volatile
  1041  06A8                     l47:
  1042  06A8  0008               	return
  1043  06A9                     __end_of_I2C_Master_Write:
  1044                           
  1045                           	psect	text6
  1046  0696                     __ptext6:	
  1047 ;; *************** function _I2C_Master_Stop *****************
  1048 ;; Defined at:
  1049 ;;		line 58 in file "I2C.c"
  1050 ;; Parameters:    Size  Location     Type
  1051 ;;		None
  1052 ;; Auto vars:     Size  Location     Type
  1053 ;;		None
  1054 ;; Return value:  Size  Location     Type
  1055 ;;                  1    wreg      void 
  1056 ;; Registers used:
  1057 ;;		wreg, status,2, status,0, pclath, cstack
  1058 ;; Tracked objects:
  1059 ;;		On entry : 0/0
  1060 ;;		On exit  : 0/0
  1061 ;;		Unchanged: 0/0
  1062 ;; Data sizes:     COMMON   BANK0   BANK1   BANK3   BANK2
  1063 ;;      Params:         0       0       0       0       0
  1064 ;;      Locals:         0       0       0       0       0
  1065 ;;      Temps:          0       0       0       0       0
  1066 ;;      Totals:         0       0       0       0       0
  1067 ;;Total ram usage:        0 bytes
  1068 ;; Hardware stack levels used:    1
  1069 ;; Hardware stack levels required when called:    1
  1070 ;; This function calls:
  1071 ;;		_I2C_Master_Wait
  1072 ;; This function is called by:
  1073 ;;		_main
  1074 ;; This function uses a non-reentrant model
  1075 ;;
  1076                           
  1077                           
  1078                           ;psect for function _I2C_Master_Stop
  1079  0696                     _I2C_Master_Stop:
  1080  0696                     l847:	
  1081                           ;incstack = 0
  1082                           ; Regs used in _I2C_Master_Stop: [wreg+status,2+status,0+pclath+cstack]
  1083                           
  1084                           
  1085                           ;I2C.c: 60:     I2C_Master_Wait();
  1086  0696  120A  118A  26A9  120A  118A  	fcall	_I2C_Master_Wait
  1087  069B                     l849:
  1088                           
  1089                           ;I2C.c: 61:     SSPCON2bits.PEN = 1;
  1090  069B  1683               	bsf	3,5	;RP0=1, select bank1
  1091  069C  1303               	bcf	3,6	;RP1=0, select bank1
  1092  069D  1511               	bsf	17,2	;volatile
  1093  069E                     l44:
  1094  069E  0008               	return
  1095  069F                     __end_of_I2C_Master_Stop:
  1096                           
  1097                           	psect	text7
  1098  068D                     __ptext7:	
  1099 ;; *************** function _I2C_Master_Start *****************
  1100 ;; Defined at:
  1101 ;;		line 42 in file "I2C.c"
  1102 ;; Parameters:    Size  Location     Type
  1103 ;;		None
  1104 ;; Auto vars:     Size  Location     Type
  1105 ;;		None
  1106 ;; Return value:  Size  Location     Type
  1107 ;;                  1    wreg      void 
  1108 ;; Registers used:
  1109 ;;		wreg, status,2, status,0, pclath, cstack
  1110 ;; Tracked objects:
  1111 ;;		On entry : 0/0
  1112 ;;		On exit  : 0/0
  1113 ;;		Unchanged: 0/0
  1114 ;; Data sizes:     COMMON   BANK0   BANK1   BANK3   BANK2
  1115 ;;      Params:         0       0       0       0       0
  1116 ;;      Locals:         0       0       0       0       0
  1117 ;;      Temps:          0       0       0       0       0
  1118 ;;      Totals:         0       0       0       0       0
  1119 ;;Total ram usage:        0 bytes
  1120 ;; Hardware stack levels used:    1
  1121 ;; Hardware stack levels required when called:    1
  1122 ;; This function calls:
  1123 ;;		_I2C_Master_Wait
  1124 ;; This function is called by:
  1125 ;;		_main
  1126 ;; This function uses a non-reentrant model
  1127 ;;
  1128                           
  1129                           
  1130                           ;psect for function _I2C_Master_Start
  1131  068D                     _I2C_Master_Start:
  1132  068D                     l843:	
  1133                           ;incstack = 0
  1134                           ; Regs used in _I2C_Master_Start: [wreg+status,2+status,0+pclath+cstack]
  1135                           
  1136                           
  1137                           ;I2C.c: 44:     I2C_Master_Wait();
  1138  068D  120A  118A  26A9  120A  118A  	fcall	_I2C_Master_Wait
  1139  0692                     l845:
  1140                           
  1141                           ;I2C.c: 45:     SSPCON2bits.SEN = 1;
  1142  0692  1683               	bsf	3,5	;RP0=1, select bank1
  1143  0693  1303               	bcf	3,6	;RP1=0, select bank1
  1144  0694  1411               	bsf	17,0	;volatile
  1145  0695                     l38:
  1146  0695  0008               	return
  1147  0696                     __end_of_I2C_Master_Start:
  1148                           
  1149                           	psect	text8
  1150  06CE                     __ptext8:	
  1151 ;; *************** function _I2C_Master_Read *****************
  1152 ;; Defined at:
  1153 ;;		line 77 in file "I2C.c"
  1154 ;; Parameters:    Size  Location     Type
  1155 ;;  a               2    0[COMMON] unsigned short 
  1156 ;; Auto vars:     Size  Location     Type
  1157 ;;  temp            2    4[COMMON] unsigned short 
  1158 ;; Return value:  Size  Location     Type
  1159 ;;                  2    0[COMMON] unsigned short 
  1160 ;; Registers used:
  1161 ;;		wreg, status,2, status,0, pclath, cstack
  1162 ;; Tracked objects:
  1163 ;;		On entry : 0/0
  1164 ;;		On exit  : 0/0
  1165 ;;		Unchanged: 0/0
  1166 ;; Data sizes:     COMMON   BANK0   BANK1   BANK3   BANK2
  1167 ;;      Params:         2       0       0       0       0
  1168 ;;      Locals:         2       0       0       0       0
  1169 ;;      Temps:          2       0       0       0       0
  1170 ;;      Totals:         6       0       0       0       0
  1171 ;;Total ram usage:        6 bytes
  1172 ;; Hardware stack levels used:    1
  1173 ;; Hardware stack levels required when called:    1
  1174 ;; This function calls:
  1175 ;;		_I2C_Master_Wait
  1176 ;; This function is called by:
  1177 ;;		_main
  1178 ;; This function uses a non-reentrant model
  1179 ;;
  1180                           
  1181                           
  1182                           ;psect for function _I2C_Master_Read
  1183  06CE                     _I2C_Master_Read:
  1184  06CE                     l855:	
  1185                           ;incstack = 0
  1186                           ; Regs used in _I2C_Master_Read: [wreg+status,2+status,0+pclath+cstack]
  1187                           
  1188                           
  1189                           ;I2C.c: 77: unsigned short I2C_Master_Read(unsigned short a);I2C.c: 78: {;I2C.c: 79:    
      +                           unsigned short temp;;I2C.c: 80:     I2C_Master_Wait();
  1190  06CE  120A  118A  26A9  120A  118A  	fcall	_I2C_Master_Wait
  1191  06D3                     l857:
  1192                           
  1193                           ;I2C.c: 81:     SSPCON2bits.RCEN = 1;
  1194  06D3  1683               	bsf	3,5	;RP0=1, select bank1
  1195  06D4  1303               	bcf	3,6	;RP1=0, select bank1
  1196  06D5  1591               	bsf	17,3	;volatile
  1197                           
  1198                           ;I2C.c: 82:     I2C_Master_Wait();
  1199  06D6  120A  118A  26A9  120A  118A  	fcall	_I2C_Master_Wait
  1200  06DB                     l859:
  1201                           
  1202                           ;I2C.c: 83:     temp = SSPBUF;
  1203  06DB  1283               	bcf	3,5	;RP0=0, select bank0
  1204  06DC  1303               	bcf	3,6	;RP1=0, select bank0
  1205  06DD  0813               	movf	19,w	;volatile
  1206  06DE  00F2               	movwf	??_I2C_Master_Read
  1207  06DF  01F3               	clrf	??_I2C_Master_Read+1
  1208  06E0  0872               	movf	??_I2C_Master_Read,w
  1209  06E1  00F4               	movwf	I2C_Master_Read@temp
  1210  06E2  0873               	movf	??_I2C_Master_Read+1,w
  1211  06E3  00F5               	movwf	I2C_Master_Read@temp+1
  1212  06E4                     l861:
  1213                           
  1214                           ;I2C.c: 84:     I2C_Master_Wait();
  1215  06E4  120A  118A  26A9  120A  118A  	fcall	_I2C_Master_Wait
  1216  06E9                     l863:
  1217                           
  1218                           ;I2C.c: 85:     if(a == 1){
  1219  06E9  0370               	decf	I2C_Master_Read@a,w
  1220  06EA  0471               	iorwf	I2C_Master_Read@a+1,w
  1221  06EB  1D03               	btfss	3,2
  1222  06EC  2EEE               	goto	u231
  1223  06ED  2EEF               	goto	u230
  1224  06EE                     u231:
  1225  06EE  2EF3               	goto	l50
  1226  06EF                     u230:
  1227  06EF                     l865:
  1228                           
  1229                           ;I2C.c: 86:         SSPCON2bits.ACKDT = 0;
  1230  06EF  1683               	bsf	3,5	;RP0=1, select bank1
  1231  06F0  1303               	bcf	3,6	;RP1=0, select bank1
  1232  06F1  1291               	bcf	17,5	;volatile
  1233                           
  1234                           ;I2C.c: 87:     }else{
  1235  06F2  2EF6               	goto	l51
  1236  06F3                     l50:
  1237                           
  1238                           ;I2C.c: 88:         SSPCON2bits.ACKDT = 1;
  1239  06F3  1683               	bsf	3,5	;RP0=1, select bank1
  1240  06F4  1303               	bcf	3,6	;RP1=0, select bank1
  1241  06F5  1691               	bsf	17,5	;volatile
  1242  06F6                     l51:	
  1243                           ;I2C.c: 89:     }
  1244                           
  1245                           
  1246                           ;I2C.c: 90:     SSPCON2bits.ACKEN = 1;
  1247  06F6  1611               	bsf	17,4	;volatile
  1248  06F7                     l867:
  1249                           
  1250                           ;I2C.c: 91:     return temp;
  1251  06F7  0875               	movf	I2C_Master_Read@temp+1,w
  1252  06F8  00F1               	movwf	?_I2C_Master_Read+1
  1253  06F9  0874               	movf	I2C_Master_Read@temp,w
  1254  06FA  00F0               	movwf	?_I2C_Master_Read
  1255  06FB                     l52:
  1256  06FB  0008               	return
  1257  06FC                     __end_of_I2C_Master_Read:
  1258                           
  1259                           	psect	text9
  1260  06A9                     __ptext9:	
  1261 ;; *************** function _I2C_Master_Wait *****************
  1262 ;; Defined at:
  1263 ;;		line 35 in file "I2C.c"
  1264 ;; Parameters:    Size  Location     Type
  1265 ;;		None
  1266 ;; Auto vars:     Size  Location     Type
  1267 ;;		None
  1268 ;; Return value:  Size  Location     Type
  1269 ;;                  1    wreg      void 
  1270 ;; Registers used:
  1271 ;;		wreg, status,2
  1272 ;; Tracked objects:
  1273 ;;		On entry : 0/0
  1274 ;;		On exit  : 0/0
  1275 ;;		Unchanged: 0/0
  1276 ;; Data sizes:     COMMON   BANK0   BANK1   BANK3   BANK2
  1277 ;;      Params:         0       0       0       0       0
  1278 ;;      Locals:         0       0       0       0       0
  1279 ;;      Temps:          0       0       0       0       0
  1280 ;;      Totals:         0       0       0       0       0
  1281 ;;Total ram usage:        0 bytes
  1282 ;; Hardware stack levels used:    1
  1283 ;; This function calls:
  1284 ;;		Nothing
  1285 ;; This function is called by:
  1286 ;;		_I2C_Master_Start
  1287 ;;		_I2C_Master_Stop
  1288 ;;		_I2C_Master_Write
  1289 ;;		_I2C_Master_Read
  1290 ;;		_I2C_Master_RepeatedStart
  1291 ;; This function uses a non-reentrant model
  1292 ;;
  1293                           
  1294                           
  1295                           ;psect for function _I2C_Master_Wait
  1296  06A9                     _I2C_Master_Wait:
  1297  06A9                     l839:	
  1298                           ;incstack = 0
  1299                           ; Regs used in _I2C_Master_Wait: [wreg+status,2]
  1300                           
  1301  06A9                     l32:	
  1302                           ;I2C.c: 37:     while ((SSPSTAT & 0x04) || (SSPCON2 & 0x1F));
  1303                           
  1304  06A9  1683               	bsf	3,5	;RP0=1, select bank1
  1305  06AA  1303               	bcf	3,6	;RP1=0, select bank1
  1306  06AB  1914               	btfsc	20,2	;volatile
  1307  06AC  2EAE               	goto	u211
  1308  06AD  2EAF               	goto	u210
  1309  06AE                     u211:
  1310  06AE  2EA9               	goto	l32
  1311  06AF                     u210:
  1312  06AF                     l841:
  1313  06AF  0811               	movf	17,w	;volatile
  1314  06B0  391F               	andlw	31
  1315  06B1  1D03               	btfss	3,2
  1316  06B2  2EB4               	goto	u221
  1317  06B3  2EB5               	goto	u220
  1318  06B4                     u221:
  1319  06B4  2EA9               	goto	l32
  1320  06B5                     u220:
  1321  06B5                     l35:
  1322  06B5  0008               	return
  1323  06B6                     __end_of_I2C_Master_Wait:
  1324  007E                     btemp	set	126	;btemp
  1325  007E                     wtemp0	set	126
  1326                           
  1327                           	psect	config
  1328                           
  1329                           ;Config register CONFIG1 @ 0x2007
  1330                           ;	Oscillator Selection bits
  1331                           ;	FOSC = INTRC_NOCLKOUT, INTOSCIO oscillator: I/O function on RA6/OSC2/CLKOUT pin, I/O f
      +                          unction on RA7/OSC1/CLKIN
  1332                           ;	Watchdog Timer Enable bit
  1333                           ;	WDTE = OFF, WDT disabled and can be enabled by SWDTEN bit of the WDTCON register
  1334                           ;	Power-up Timer Enable bit
  1335                           ;	PWRTE = OFF, PWRT disabled
  1336                           ;	RE3/MCLR pin function select bit
  1337                           ;	MCLRE = OFF, RE3/MCLR pin function is digital input, MCLR internally tied to VDD
  1338                           ;	Code Protection bit
  1339                           ;	CP = OFF, Program memory code protection is disabled
  1340                           ;	Data Code Protection bit
  1341                           ;	CPD = OFF, Data memory code protection is disabled
  1342                           ;	Brown Out Reset Selection bits
  1343                           ;	BOREN = OFF, BOR disabled
  1344                           ;	Internal External Switchover bit
  1345                           ;	IESO = OFF, Internal/External Switchover mode is disabled
  1346                           ;	Fail-Safe Clock Monitor Enabled bit
  1347                           ;	FCMEN = OFF, Fail-Safe Clock Monitor is disabled
  1348                           ;	Low Voltage Programming Enable bit
  1349                           ;	LVP = OFF, RB3 pin has digital I/O, HV on MCLR must be used for programming
  1350                           ;	In-Circuit Debugger Mode bit
  1351                           ;	DEBUG = 0x1, unprogrammed default
  1352  2007                     	org	8199
  1353  2007  20D4               	dw	8404
  1354                           
  1355                           ;Config register CONFIG2 @ 0x2008
  1356                           ;	Brown-out Reset Selection bit
  1357                           ;	BOR4V = BOR40V, Brown-out Reset set to 4.0V
  1358                           ;	Flash Program Memory Self Write Enable bits
  1359                           ;	WRT = OFF, Write protection off
  1360  2008                     	org	8200
  1361  2008  3FFF               	dw	16383

Data Sizes:
    Strings     0
    Constant    0
    Data        0
    BSS         4
    Persistent  0
    Stack       0

Auto Spaces:
    Space          Size  Autos    Used
    COMMON           14     14      14
    BANK0            80     11      15
    BANK1            80      0       0
    BANK3            96      0       0
    BANK2            96      0       0

Pointer List with Targets:

    None.

Critical Paths under _main in COMMON

    _I2C_Master_Init->___lldiv

Critical Paths under _main in BANK0

    _setup->_I2C_Master_Init

Critical Paths under _main in BANK1

    None.

Critical Paths under _main in BANK3

    None.

Critical Paths under _main in BANK2

    None.

Call Graph Tables:

 ---------------------------------------------------------------------------------
 (Depth) Function   	        Calls       Base Space   Used Autos Params    Refs
 ---------------------------------------------------------------------------------
 (0) _main                                                 3     3      0     631
                                              8 BANK0      3     3      0
                    _I2C_Master_Read
                   _I2C_Master_Start
                    _I2C_Master_Stop
                   _I2C_Master_Write
                            _cfg_clk
                              _setup
 ---------------------------------------------------------------------------------
 (1) _setup                                                0     0      0     412
                    _I2C_Master_Init
 ---------------------------------------------------------------------------------
 (2) _I2C_Master_Init                                      8     4      4     412
                                              0 BANK0      8     4      4
                            ___lldiv
 ---------------------------------------------------------------------------------
 (3) ___lldiv                                             14     6      8     314
                                              0 COMMON    14     6      8
 ---------------------------------------------------------------------------------
 (1) _cfg_clk                                              0     0      0       0
 ---------------------------------------------------------------------------------
 (1) _I2C_Master_Write                                     2     0      2      98
                                              0 COMMON     2     0      2
                    _I2C_Master_Wait
 ---------------------------------------------------------------------------------
 (1) _I2C_Master_Stop                                      0     0      0       0
                    _I2C_Master_Wait
 ---------------------------------------------------------------------------------
 (1) _I2C_Master_Start                                     0     0      0       0
                    _I2C_Master_Wait
 ---------------------------------------------------------------------------------
 (1) _I2C_Master_Read                                      6     4      2     121
                                              0 COMMON     6     4      2
                    _I2C_Master_Wait
 ---------------------------------------------------------------------------------
 (2) _I2C_Master_Wait                                      0     0      0       0
 ---------------------------------------------------------------------------------
 Estimated maximum stack depth 3
 ---------------------------------------------------------------------------------

 Call Graph Graphs:

 _main (ROOT)
   _I2C_Master_Read
     _I2C_Master_Wait
   _I2C_Master_Start
     _I2C_Master_Wait
   _I2C_Master_Stop
     _I2C_Master_Wait
   _I2C_Master_Write
     _I2C_Master_Wait
   _cfg_clk
   _setup
     _I2C_Master_Init
       ___lldiv

 Address spaces:
Name               Size   Autos  Total    Cost      Usage
BITCOMMON            E      0       0       0        0.0%
EEDATA             100      0       0       0        0.0%
NULL                 0      0       0       0        0.0%
CODE                 0      0       0       0        0.0%
COMMON               E      E       E       1      100.0%
BITSFR0              0      0       0       1        0.0%
SFR0                 0      0       0       1        0.0%
BITSFR1              0      0       0       2        0.0%
SFR1                 0      0       0       2        0.0%
STACK                0      0       0       2        0.0%
ABS                  0      0      1D       3        0.0%
BITBANK0            50      0       0       4        0.0%
BITSFR3              0      0       0       4        0.0%
SFR3                 0      0       0       4        0.0%
BANK0               50      B       F       5       18.8%
BITSFR2              0      0       0       5        0.0%
SFR2                 0      0       0       5        0.0%
BITBANK1            50      0       0       6        0.0%
BANK1               50      0       0       7        0.0%
BITBANK3            60      0       0       8        0.0%
BANK3               60      0       0       9        0.0%
BITBANK2            60      0       0      10        0.0%
BANK2               60      0       0      11        0.0%
DATA                 0      0      1D      12        0.0%


Microchip Technology PIC Macro Assembler V2.31 build 20201012212115 
Symbol Table                                                                                   Wed Sep 01 15:52:23 2021

                       l32 06A9                         l50 06F3                         l35 06B5  
                       l51 06F6                         l52 06FB                         l44 069E  
                       l29 0733                         l38 0695                         l47 06A8  
                       l96 073E                         _d0 002D                         _d1 002C  
                       _pd 002E                        l102 06CD                        l105 068C  
                      l227 07F5                        l811 07B4                        l803 0790  
                      l821 07E7                        l813 07BD                        l805 07A0  
                      l815 07CF                        l807 07A3                        l823 07ED  
                      l831 0703                        l841 06AF                        l817 07DD  
                      l809 07B0                        l833 0730                        l843 068D  
                      l851 069F                        l819 07DE                        l835 0731  
                      l827 06FC                        l861 06E4                        l845 0692  
                      l853 06A4                        l837 0732                        l829 0700  
                      l839 06A9                        l863 06E9                        l855 06CE  
                      l847 0696                        l871 06B6                        l865 06EF  
                      l857 06D3                        l849 069B                        l873 06C0  
                      l867 06F7                        l859 06DB                        l875 0685  
                      l891 0782                        l883 0734                        l877 068B  
                      l893 0787                        l885 075F                        l887 076E  
                      l889 0775                        _GIE 005F                        u200 0713  
                      u210 06AF                        u130 07A0                        u211 06AE  
                      u131 079F                        u220 06B5                        u221 06B4  
                      u205 070E                        u230 06EF                        u150 07B4  
                      u231 06EE                        u151 07B3                        u145 07A5  
                      u170 07CF                        u171 07CE                        u165 07B6  
                      u245 0778                        u190 07ED                        u191 07EC  
                      u175 07CB                        u185 07DF                        u257 0767  
                      _val 002B                       _PEIE 005E                       _main 0734  
                     btemp 007E                       start 0000           ?_I2C_Master_Init 0020  
         ?_I2C_Master_Read 0070           ?_I2C_Master_Wait 0070           ?_I2C_Master_Stop 0070  
                    ?_main 0070                      _ANSEL 0188            __end_of___lldiv 07F6  
                    _PORTD 0008            __end_of_cfg_clk 068D                      _TRISD 0088  
                    _SSPIE 0463                      _SSPIF 0063                      _setup 06B6  
                    status 0003                      wtemp0 007E            __initialization 07F6  
             __end_of_main 0790                     ??_main 0028          ?_I2C_Master_Start 0070  
        ?_I2C_Master_Write 0070         ??_I2C_Master_Start 0070         ??_I2C_Master_Write 0072  
                   ?_setup 0070                     _ANSELH 0189                     _SSPADD 0093  
                   _TRISC3 043B                     _TRISC4 043C                     _SSPCON 0014  
                   _SSPBUF 0013                  ??___lldiv 0078                  ??_cfg_clk 0070  
  __end_of__initialization 07FC             __pcstackCOMMON 0070              __end_of_setup 06CE  
                  ??_setup 007E                 __pbssBANK0 002B                 __pmaintext 0734  
                  _SSPCON2 0091                    _SSPSTAT 0094                    ___lldiv 0790  
                  _cfg_clk 0685                    __ptext1 06B6                    __ptext2 06FC  
                  __ptext3 0790                    __ptext4 0685                    __ptext5 069F  
                  __ptext6 0696                    __ptext7 068D                    __ptext8 06CE  
                  __ptext9 06A9   __size_of_I2C_Master_Init 0038   __size_of_I2C_Master_Read 002E  
 __size_of_I2C_Master_Wait 000D   __size_of_I2C_Master_Stop 0009       end_of_initialization 07FC  
__size_of_I2C_Master_Start 0009  __size_of_I2C_Master_Write 000A            ___lldiv@divisor 0070  
          ___lldiv@counter 007D           I2C_Master_Init@c 0020           I2C_Master_Read@a 0070  
                _PORTDbits 0008                  _TRISCbits 0087        start_initialization 07F6  
        ??_I2C_Master_Init 0024          ??_I2C_Master_Read 0072          ??_I2C_Master_Wait 0070  
        ??_I2C_Master_Stop 0070                  ___latbits 0002              __pcstackBANK0 0020  
         _I2C_Master_Start 068D           _I2C_Master_Write 069F                   ?___lldiv 0070  
                 ?_cfg_clk 0070             __size_of_setup 0018        I2C_Master_Read@temp 0074  
         __size_of___lldiv 0066           __size_of_cfg_clk 0008            _I2C_Master_Init 06FC  
          _I2C_Master_Read 06CE            _I2C_Master_Wait 06A9            _I2C_Master_Stop 0696  
            __size_of_main 005C   __end_of_I2C_Master_Start 0696   __end_of_I2C_Master_Write 06A9  
         ___lldiv@dividend 0074                 _OSCCONbits 008F    __end_of_I2C_Master_Init 0734  
  __end_of_I2C_Master_Read 06FC    __end_of_I2C_Master_Wait 06B6    __end_of_I2C_Master_Stop 069F  
         ___lldiv@quotient 0079          I2C_Master_Write@d 0070                _SSPCON2bits 0091  
